; Function Attrs: nounwind uwtable
define hidden zeroext i1 @SDL_GetSurfaceAlphaMod_REAL(ptr noundef readonly captures(address_is_null) %0, ptr noundef writeonly captures(address_is_null) %1) local_unnamed_addr #2 {
  %.not.i = icmp eq ptr %0, null
  br i1 %.not.i, label %SDL_SurfaceValid.exit.thread, label %SDL_SurfaceValid.exit

SDL_SurfaceValid.exit:                            ; preds = %2
  %3 = getelementptr inbounds nuw i8, ptr %0, i64 40
  %4 = load ptr, ptr %3, align 8
  %5 = icmp eq ptr %4, @SDL_surface_magic
  br i1 %5, label %9, label %SDL_SurfaceValid.exit.thread

SDL_SurfaceValid.exit.thread:                     ; preds = %2, %SDL_SurfaceValid.exit
  %.not = icmp eq ptr %1, null
  br i1 %.not, label %7, label %6

6:                                                ; preds = %SDL_SurfaceValid.exit.thread
  store i8 -1, ptr %1, align 1
  br label %7

7:                                                ; preds = %6, %SDL_SurfaceValid.exit.thread
  %8 = tail call zeroext i1 (ptr, ...) @SDL_SetError_REAL(ptr noundef nonnull @.str, ptr noundef nonnull @.str.5) #10
  br label %13

9:                                                ; preds = %SDL_SurfaceValid.exit
  %.not8 = icmp eq ptr %1, null
  br i1 %.not8, label %13, label %10

10:                                               ; preds = %9
  %11 = getelementptr inbounds nuw i8, ptr %0, i64 267
  %12 = load i8, ptr %11, align 1
  store i8 %12, ptr %1, align 1
  br label %13

13:                                               ; preds = %9, %10, %7
  %.0 = phi i1 [ %8, %7 ], [ true, %10 ], [ true, %9 ]
  ret i1 %.0
}